(lp0
S'poi'
p1
aS'salary'
p2
aS'bonus'
p3
aS'deferred_income'
p4
aS'deferral_payments'
p5
aS'expenses'
p6
aS'exercised_stock_options'
p7
aS'total_stock_value'
p8
aS'from_poi_to_this_person'
p9
aS'shared_receipt_with_poi'
p10
aS'from_messages'
p11
aS'to_messages'
p12
aS'fraction_to_poi'
p13
aS'fraction_from_poi'
p14
a.